target datalayout = "e-m:e-p270:32:32-p271:32:32-p272:64:64-i64:64-i128:128-f80:128-n8:16:32:64-S128"
target triple = "x86_64-pc-linux-gnu"

@hf_reload_pathtrackans = internal global i32 0, align 4
@hf_reload_pathtrackans_next_hop = internal global i32 0, align 4
@hf_reload_pathtrackans_response = internal global i32 0, align 4
@ett_reload_pathtrackans = internal global i32 0, align 4

; Function Attrs: null_pointer_is_valid sspstrong uwtable
define internal i32 @dissect_pathtrackans(ptr noundef %0, ptr noundef %1, ptr noundef %2, i16 noundef zeroext %3, i16 noundef zeroext %4) #0 {
  %6 = alloca ptr, align 8
  %7 = alloca ptr, align 8
  %8 = alloca ptr, align 8
  %9 = alloca i16, align 2
  %10 = alloca i16, align 2
  %11 = alloca ptr, align 8
  %12 = alloca ptr, align 8
  %13 = alloca i16, align 2
  store ptr %0, ptr %6, align 8
  store ptr %1, ptr %7, align 8
  store ptr %2, ptr %8, align 8
  store i16 %3, ptr %9, align 2
  store i16 %4, ptr %10, align 2
  call void @llvm.lifetime.start.p0(i64 8, ptr %11) #8
  call void @llvm.lifetime.start.p0(i64 8, ptr %12) #8
  call void @llvm.lifetime.start.p0(i64 2, ptr %13) #8
  store i16 0, ptr %13, align 2
  %14 = load ptr, ptr %8, align 8
  %15 = load i32, ptr @hf_reload_pathtrackans, align 4
  %16 = load ptr, ptr %6, align 8
  %17 = load i16, ptr %9, align 2
  %18 = zext i16 %17 to i32
  %19 = load i16, ptr %10, align 2
  %20 = zext i16 %19 to i32
  %21 = call ptr @proto_tree_add_item(ptr noundef %14, i32 noundef %15, ptr noundef %16, i32 noundef %18, i32 noundef %20, i32 noundef 0)
  store ptr %21, ptr %11, align 8
  %22 = load ptr, ptr %11, align 8
  %23 = load i32, ptr @ett_reload_pathtrackans, align 4
  %24 = call ptr @proto_item_add_subtree(ptr noundef %22, i32 noundef %23)
  store ptr %24, ptr %12, align 8
  %25 = load i32, ptr @hf_reload_pathtrackans_next_hop, align 4
  %26 = load ptr, ptr %6, align 8
  %27 = load ptr, ptr %7, align 8
  %28 = load ptr, ptr %12, align 8
  %29 = load i16, ptr %9, align 2
  %30 = zext i16 %29 to i32
  %31 = load i16, ptr %13, align 2
  %32 = zext i16 %31 to i32
  %33 = add i32 %30, %32
  %34 = trunc i32 %33 to i16
  %35 = load i16, ptr %10, align 2
  %36 = call i32 @dissect_destination(i32 noundef %25, ptr noundef %26, ptr noundef %27, ptr noundef %28, i16 noundef zeroext %34, i16 noundef zeroext %35)
  %37 = load i16, ptr %13, align 2
  %38 = zext i16 %37 to i32
  %39 = add i32 %38, %36
  %40 = trunc i32 %39 to i16
  store i16 %40, ptr %13, align 2
  %41 = load i32, ptr @hf_reload_pathtrackans_response, align 4
  %42 = load ptr, ptr %6, align 8
  %43 = load ptr, ptr %7, align 8
  %44 = load ptr, ptr %12, align 8
  %45 = load i16, ptr %9, align 2
  %46 = zext i16 %45 to i32
  %47 = load i16, ptr %13, align 2
  %48 = zext i16 %47 to i32
  %49 = add i32 %46, %48
  %50 = trunc i32 %49 to i16
  %51 = load i16, ptr %10, align 2
  %52 = zext i16 %51 to i32
  %53 = load i16, ptr %13, align 2
  %54 = zext i16 %53 to i32
  %55 = sub i32 %52, %54
  %56 = trunc i32 %55 to i16
  %57 = call i32 @dissect_diagnosticresponse(i32 noundef %41, ptr noundef %42, ptr noundef %43, ptr noundef %44, i16 noundef zeroext %50, i16 noundef zeroext %56)
  %58 = load i16, ptr %13, align 2
  %59 = zext i16 %58 to i32
  %60 = add i32 %59, %57
  %61 = trunc i32 %60 to i16
  store i16 %61, ptr %13, align 2
  %62 = load i16, ptr %13, align 2
  %63 = zext i16 %62 to i32
  call void @llvm.lifetime.end.p0(i64 2, ptr %13) #8
  call void @llvm.lifetime.end.p0(i64 8, ptr %12) #8
  call void @llvm.lifetime.end.p0(i64 8, ptr %11) #8
  ret i32 %63
}