; Function Attrs: null_pointer_is_valid sspstrong uwtable
define internal fastcc void @dissect_pathtrackans(ptr noundef %0, ptr noundef %1, ptr noundef %2, i16 noundef zeroext %3, i16 noundef zeroext %4) unnamed_addr #0 {
  %6 = load i32, ptr @hf_reload_pathtrackans, align 4
  %7 = zext i16 %3 to i32
  %8 = zext i16 %4 to i32
  %9 = tail call ptr @proto_tree_add_item(ptr noundef %2, i32 noundef %6, ptr noundef %0, i32 noundef %7, i32 noundef %8, i32 noundef 0)
  %10 = load i32, ptr @ett_reload_pathtrackans, align 4
  %11 = tail call ptr @proto_item_add_subtree(ptr noundef %9, i32 noundef %10)
  %12 = load i32, ptr @hf_reload_pathtrackans_next_hop, align 4
  %13 = tail call fastcc i32 @dissect_destination(i32 noundef %12, ptr noundef %0, ptr noundef %1, ptr noundef %11, i16 noundef zeroext %3, i16 noundef zeroext %4)
  %14 = load i32, ptr @hf_reload_pathtrackans_response, align 4
  %15 = trunc nuw nsw i32 %13 to i16
  %16 = add i16 %3, %15
  %17 = sub i16 %4, %15
  %18 = tail call fastcc i32 @dissect_diagnosticresponse(i32 noundef %14, ptr noundef %0, ptr noundef %1, ptr noundef %11, i16 noundef zeroext %16, i16 noundef zeroext %17)
  ret void
}